target datalayout = "e-m:e-p270:32:32-p271:32:32-p272:64:64-i64:64-i128:128-f80:128-n8:16:32:64-S128"
target triple = "x86_64-pc-linux-gnu"

%struct.HTable = type { i32, ptr }
%union.SourceSpan = type { i64 }
%struct.VHeader_ = type { i32, i32, [0 x i8] }
%struct.CompilationUnit_ = type { ptr, ptr, ptr, ptr, ptr, ptr, ptr, ptr, ptr, ptr, i32, ptr, i8, i8, i8, i8, ptr, ptr, ptr, ptr, ptr, ptr, ptr, ptr, ptr, ptr, ptr, ptr, %struct.HTable, i32, ptr, ptr, %struct.anon.85 }
%struct.anon.85 = type { ptr, ptr }
%struct.Decl_ = type { ptr, ptr, %union.SourceSpan, i64, %union.anon, i32, %union.anon.0, i64, ptr, ptr, ptr, %union.anon.1 }
%union.anon = type { ptr }
%union.anon.0 = type { i16 }
%union.anon.1 = type { %struct.FuncDecl }
%struct.FuncDecl = type { i32, [4 x i8], %struct.Signature_, i32, i32, %union.anon.8 }
%struct.Signature_ = type <{ %struct.CalleeAttributes, i16, i8, i32, i32, [4 x i8], ptr }>
%struct.CalleeAttributes = type { i8 }
%union.anon.8 = type { %struct.anon.9 }
%struct.anon.9 = type { i16, %union.anon.10 }
%union.anon.10 = type { ptr }

; Function Attrs: nounwind uwtable
define internal ptr @vec_new_(i64 noundef %0, i64 noundef %1) #0 {
  %3 = alloca i64, align 8
  %4 = alloca i64, align 8
  %5 = alloca ptr, align 8
  store i64 %0, ptr %3, align 8
  store i64 %1, ptr %4, align 8
  %6 = load i64, ptr %3, align 8
  %7 = load i64, ptr %4, align 8
  %8 = mul i64 %6, %7
  %9 = add i64 %8, 8
  %10 = call ptr @calloc_arena(i64 noundef %9)
  store ptr %10, ptr %5, align 8
  %11 = load i64, ptr %4, align 8
  %12 = trunc i64 %11 to i32
  %13 = load ptr, ptr %5, align 8
  %14 = getelementptr inbounds %struct.VHeader_, ptr %13, i32 0, i32 1
  store i32 %12, ptr %14, align 4
  %15 = load ptr, ptr %5, align 8
  ret ptr %15
}

; Function Attrs: nounwind uwtable
define internal ptr @expand_(ptr noundef %0, i64 noundef %1) #0 {
  %3 = alloca ptr, align 8
  %4 = alloca i64, align 8
  %5 = alloca ptr, align 8
  %6 = alloca ptr, align 8
  %7 = alloca i64, align 8
  store ptr %0, ptr %3, align 8
  store i64 %1, ptr %4, align 8
  %8 = load ptr, ptr %3, align 8
  %9 = icmp ne ptr %8, null
  br i1 %9, label %13, label %10

10:                                               ; preds = %2
  %11 = load i64, ptr %4, align 8
  %12 = call ptr @vec_new_(i64 noundef %11, i64 noundef 8)
  store ptr %12, ptr %5, align 8
  br label %16

13:                                               ; preds = %2
  %14 = load ptr, ptr %3, align 8
  %15 = getelementptr inbounds %struct.VHeader_, ptr %14, i64 -1
  store ptr %15, ptr %5, align 8
  br label %16

16:                                               ; preds = %13, %10
  %17 = load ptr, ptr %5, align 8
  %18 = getelementptr inbounds %struct.VHeader_, ptr %17, i32 0, i32 0
  %19 = load i32, ptr %18, align 4
  %20 = load ptr, ptr %5, align 8
  %21 = getelementptr inbounds %struct.VHeader_, ptr %20, i32 0, i32 1
  %22 = load i32, ptr %21, align 4
  %23 = icmp eq i32 %19, %22
  br i1 %23, label %24, label %49

24:                                               ; preds = %16
  %25 = load i64, ptr %4, align 8
  %26 = load ptr, ptr %5, align 8
  %27 = getelementptr inbounds %struct.VHeader_, ptr %26, i32 0, i32 1
  %28 = load i32, ptr %27, align 4
  %29 = shl i32 %28, 1
  %30 = zext i32 %29 to i64
  %31 = call ptr @vec_new_(i64 noundef %25, i64 noundef %30)
  store ptr %31, ptr %6, align 8
  %32 = load i64, ptr %4, align 8
  %33 = load ptr, ptr %5, align 8
  %34 = getelementptr inbounds %struct.VHeader_, ptr %33, i32 0, i32 1
  %35 = load i32, ptr %34, align 4
  %36 = zext i32 %35 to i64
  %37 = mul i64 %32, %36
  %38 = add i64 %37, 8
  store i64 %38, ptr %7, align 8
  %39 = load ptr, ptr %6, align 8
  %40 = load ptr, ptr %5, align 8
  %41 = load i64, ptr %7, align 8
  call void @llvm.memcpy.p0.p0.i64(ptr align 4 %39, ptr align 4 %40, i64 %41, i1 false)
  %42 = load ptr, ptr %6, align 8
  store ptr %42, ptr %5, align 8
  %43 = load ptr, ptr %5, align 8
  %44 = getelementptr inbounds %struct.VHeader_, ptr %43, i32 0, i32 1
  %45 = load i32, ptr %44, align 4
  %46 = shl i32 %45, 1
  %47 = load ptr, ptr %6, align 8
  %48 = getelementptr inbounds %struct.VHeader_, ptr %47, i32 0, i32 1
  store i32 %46, ptr %48, align 4
  br label %49

49:                                               ; preds = %24, %16
  %50 = load ptr, ptr %5, align 8
  %51 = getelementptr inbounds %struct.VHeader_, ptr %50, i32 0, i32 0
  %52 = load i32, ptr %51, align 4
  %53 = add i32 %52, 1
  store i32 %53, ptr %51, align 4
  %54 = load ptr, ptr %5, align 8
  %55 = getelementptr inbounds %struct.VHeader_, ptr %54, i64 1
  ret ptr %55
}

; Function Attrs: nounwind uwtable
define dso_local void @sema_process_includes(ptr noundef %0) #0 {
  %2 = alloca i32, align 4
  %3 = alloca ptr, align 8
  %4 = alloca ptr, align 8
  %5 = alloca i32, align 4
  %6 = alloca ptr, align 8
  %7 = alloca ptr, align 8
  %8 = alloca i32, align 4
  %9 = alloca ptr, align 8
  %10 = alloca ptr, align 8
  %11 = alloca ptr, align 8
  %12 = alloca ptr, align 8
  %13 = alloca ptr, align 8
  %14 = alloca i32, align 4
  %15 = alloca i32, align 4
  %16 = alloca ptr, align 8
  %17 = alloca ptr, align 8
  %18 = alloca i32, align 4
  %19 = alloca i32, align 4
  %20 = alloca ptr, align 8
  %21 = alloca ptr, align 8
  %22 = alloca ptr, align 8
  %23 = alloca ptr, align 8
  store ptr %0, ptr %22, align 8
  br label %24

24:                                               ; preds = %140, %1
  %25 = load ptr, ptr %22, align 8
  %26 = getelementptr inbounds %struct.CompilationUnit_, ptr %25, i32 0, i32 20
  %27 = load ptr, ptr %26, align 8
  store ptr %27, ptr %23, align 8
  %28 = load ptr, ptr %23, align 8
  %29 = icmp ne ptr %28, null
  br i1 %29, label %31, label %30

30:                                               ; preds = %24
  br label %141

31:                                               ; preds = %24
  br label %32

32:                                               ; preds = %31
  br label %33

33:                                               ; preds = %32
  %34 = load ptr, ptr %22, align 8
  %35 = getelementptr inbounds %struct.CompilationUnit_, ptr %34, i32 0, i32 20
  store ptr null, ptr %35, align 8
  %36 = load ptr, ptr %22, align 8
  %37 = load ptr, ptr %23, align 8
  store ptr %36, ptr %11, align 8
  store ptr %37, ptr %12, align 8
  %38 = load ptr, ptr %12, align 8
  store ptr %38, ptr %13, align 8
  %39 = load ptr, ptr %13, align 8
  store ptr %39, ptr %3, align 8
  %40 = load ptr, ptr %3, align 8
  %41 = icmp ne ptr %40, null
  br i1 %41, label %43, label %42

42:                                               ; preds = %33
  store i32 0, ptr %2, align 4
  br label %48

43:                                               ; preds = %33
  %44 = load ptr, ptr %3, align 8
  store ptr %44, ptr %4, align 8
  %45 = load ptr, ptr %4, align 8
  %46 = getelementptr inbounds %struct.VHeader_, ptr %45, i64 -1
  %47 = load i32, ptr %46, align 4
  store i32 %47, ptr %2, align 4
  br label %48

48:                                               ; preds = %43, %42
  %49 = load i32, ptr %2, align 4
  store i32 %49, ptr %14, align 4
  store i32 0, ptr %15, align 4
  br label %50

50:                                               ; preds = %137, %48
  %51 = load i32, ptr %15, align 4
  %52 = load i32, ptr %14, align 4
  %53 = icmp ult i32 %51, %52
  br i1 %53, label %54, label %140

54:                                               ; preds = %50
  %55 = load ptr, ptr %13, align 8
  %56 = load i32, ptr %15, align 4
  %57 = zext i32 %56 to i64
  %58 = getelementptr inbounds ptr, ptr %55, i64 %57
  %59 = load ptr, ptr %58, align 8
  store ptr %59, ptr %16, align 8
  %60 = load ptr, ptr %16, align 8
  %61 = getelementptr inbounds %struct.Decl_, ptr %60, i32 0, i32 3
  %62 = load i64, ptr %61, align 8
  %63 = and i64 %62, 127
  %64 = trunc i64 %63 to i32
  %65 = icmp eq i32 %64, 6
  br i1 %65, label %66, label %70

66:                                               ; preds = %54
  %67 = load ptr, ptr %11, align 8
  %68 = load ptr, ptr %16, align 8
  %69 = call ptr @sema_run_exec(ptr noundef %67, ptr noundef %68)
  br label %74

70:                                               ; preds = %54
  %71 = load ptr, ptr %11, align 8
  %72 = load ptr, ptr %16, align 8
  %73 = call ptr @sema_load_include(ptr noundef %71, ptr noundef %72)
  br label %74

74:                                               ; preds = %70, %66
  %75 = phi ptr [ %69, %66 ], [ %73, %70 ]
  store ptr %75, ptr %17, align 8
  store i32 0, ptr %18, align 4
  %76 = load ptr, ptr %17, align 8
  store ptr %76, ptr %6, align 8
  %77 = load ptr, ptr %6, align 8
  %78 = icmp ne ptr %77, null
  br i1 %78, label %80, label %79

79:                                               ; preds = %74
  store i32 0, ptr %5, align 4
  br label %85

80:                                               ; preds = %74
  %81 = load ptr, ptr %6, align 8
  store ptr %81, ptr %7, align 8
  %82 = load ptr, ptr %7, align 8
  %83 = getelementptr inbounds %struct.VHeader_, ptr %82, i64 -1
  %84 = load i32, ptr %83, align 4
  store i32 %84, ptr %5, align 4
  br label %85

85:                                               ; preds = %80, %79
  %86 = load i32, ptr %5, align 4
  store i32 %86, ptr %19, align 4
  br label %87

87:                                               ; preds = %134, %85
  %88 = load i32, ptr %18, align 4
  %89 = load i32, ptr %19, align 4
  %90 = icmp ult i32 %88, %89
  br i1 %90, label %91, label %137

91:                                               ; preds = %87
  %92 = load ptr, ptr %17, align 8
  %93 = load i32, ptr %18, align 4
  %94 = zext i32 %93 to i64
  %95 = getelementptr inbounds ptr, ptr %92, i64 %94
  %96 = load ptr, ptr %95, align 8
  store ptr %96, ptr %20, align 8
  %97 = load ptr, ptr %20, align 8
  %98 = getelementptr inbounds %struct.Decl_, ptr %97, i32 0, i32 3
  %99 = load i64, ptr %98, align 8
  %100 = lshr i64 %99, 32
  %101 = and i64 %100, 1
  %102 = trunc i64 %101 to i1
  br i1 %102, label %103, label %131

103:                                              ; preds = %91
  %104 = load ptr, ptr %11, align 8
  %105 = getelementptr inbounds %struct.CompilationUnit_, ptr %104, i32 0, i32 26
  %106 = load ptr, ptr %105, align 8
  %107 = call ptr @expand_(ptr noundef %106, i64 noundef 8)
  store ptr %107, ptr %21, align 8
  %108 = load ptr, ptr %21, align 8
  %109 = load ptr, ptr %11, align 8
  %110 = getelementptr inbounds %struct.CompilationUnit_, ptr %109, i32 0, i32 26
  store ptr %108, ptr %110, align 8
  %111 = load ptr, ptr %20, align 8
  %112 = load ptr, ptr %11, align 8
  %113 = getelementptr inbounds %struct.CompilationUnit_, ptr %112, i32 0, i32 26
  %114 = load ptr, ptr %113, align 8
  %115 = load ptr, ptr %11, align 8
  %116 = getelementptr inbounds %struct.CompilationUnit_, ptr %115, i32 0, i32 26
  %117 = load ptr, ptr %116, align 8
  store ptr %117, ptr %9, align 8
  %118 = load ptr, ptr %9, align 8
  %119 = icmp ne ptr %118, null
  br i1 %119, label %121, label %120

120:                                              ; preds = %103
  store i32 0, ptr %8, align 4
  br label %126

121:                                              ; preds = %103
  %122 = load ptr, ptr %9, align 8
  store ptr %122, ptr %10, align 8
  %123 = load ptr, ptr %10, align 8
  %124 = getelementptr inbounds %struct.VHeader_, ptr %123, i64 -1
  %125 = load i32, ptr %124, align 4
  store i32 %125, ptr %8, align 4
  br label %126

126:                                              ; preds = %121, %120
  %127 = load i32, ptr %8, align 4
  %128 = sub i32 %127, 1
  %129 = zext i32 %128 to i64
  %130 = getelementptr inbounds ptr, ptr %114, i64 %129
  store ptr %111, ptr %130, align 8
  br label %134

131:                                              ; preds = %91
  %132 = load ptr, ptr %11, align 8
  %133 = load ptr, ptr %20, align 8
  call void @unit_register_global_decl(ptr noundef %132, ptr noundef %133) #8
  br label %134

134:                                              ; preds = %131, %126
  %135 = load i32, ptr %18, align 4
  %136 = add i32 %135, 1
  store i32 %136, ptr %18, align 4
  br label %87, !llvm.loop !14

137:                                              ; preds = %87
  %138 = load i32, ptr %15, align 4
  %139 = add i32 %138, 1
  store i32 %139, ptr %15, align 4
  br label %50, !llvm.loop !15

140:                                              ; preds = %50
  br label %24

141:                                              ; preds = %30
  ret void
}