; Function Attrs: nounwind uwtable
define dso_local void @sema_process_includes(ptr noundef %0) local_unnamed_addr #1 {
  %2 = getelementptr inbounds i8, ptr %0, i64 136
  %3 = load ptr, ptr %2, align 8
  %.not57 = icmp eq ptr %3, null
  br i1 %.not57, label %._crit_edge60, label %.lr.ph59

.lr.ph59:                                         ; preds = %1
  %4 = getelementptr inbounds i8, ptr %0, i64 184
  br label %5

.loopexit:                                        ; preds = %._crit_edge
  %.pre = load ptr, ptr %2, align 8
  %.not = icmp eq ptr %.pre, null
  br i1 %.not, label %._crit_edge60, label %5

5:                                                ; preds = %.lr.ph59, %.loopexit
  %6 = phi ptr [ %3, %.lr.ph59 ], [ %.pre, %.loopexit ]
  store ptr null, ptr %2, align 8
  %7 = getelementptr inbounds i8, ptr %6, i64 -8
  %8 = load i32, ptr %7, align 4
  %.not61 = icmp eq i32 %8, 0
  br i1 %.not61, label %._crit_edge60, label %.lr.ph56.preheader

.lr.ph56.preheader:                               ; preds = %5
  %wide.trip.count67 = zext i32 %8 to i64
  br label %.lr.ph56

.lr.ph56:                                         ; preds = %.lr.ph56.preheader, %._crit_edge
  %indvars.iv64 = phi i64 [ 0, %.lr.ph56.preheader ], [ %indvars.iv.next65, %._crit_edge ]
  %9 = getelementptr inbounds ptr, ptr %6, i64 %indvars.iv64
  %10 = load ptr, ptr %9, align 8
  %11 = getelementptr inbounds i8, ptr %10, i64 24
  %12 = load i64, ptr %11, align 8
  %13 = and i64 %12, 127
  %14 = icmp eq i64 %13, 6
  br i1 %14, label %15, label %17

15:                                               ; preds = %.lr.ph56
  %16 = tail call fastcc ptr @sema_run_exec(ptr noundef %0, ptr noundef nonnull %10)
  br label %19

17:                                               ; preds = %.lr.ph56
  %18 = tail call fastcc ptr @sema_load_include(ptr noundef %0, ptr noundef nonnull %10)
  br label %19

19:                                               ; preds = %17, %15
  %20 = phi ptr [ %16, %15 ], [ %18, %17 ]
  %.not50 = icmp eq ptr %20, null
  br i1 %.not50, label %._crit_edge, label %21

21:                                               ; preds = %19
  %22 = getelementptr inbounds i8, ptr %20, i64 -8
  %23 = load i32, ptr %22, align 4
  %.not62 = icmp eq i32 %23, 0
  br i1 %.not62, label %._crit_edge, label %.lr.ph.preheader

.lr.ph.preheader:                                 ; preds = %21
  %wide.trip.count = zext i32 %23 to i64
  br label %.lr.ph

.lr.ph:                                           ; preds = %.lr.ph.preheader, %63
  %indvars.iv = phi i64 [ 0, %.lr.ph.preheader ], [ %indvars.iv.next, %63 ]
  %24 = getelementptr inbounds ptr, ptr %20, i64 %indvars.iv
  %25 = load ptr, ptr %24, align 8
  %26 = getelementptr inbounds i8, ptr %25, i64 24
  %27 = load i64, ptr %26, align 8
  %28 = and i64 %27, 4294967296
  %.not51 = icmp eq i64 %28, 0
  br i1 %.not51, label %62, label %29

29:                                               ; preds = %.lr.ph
  %30 = load ptr, ptr %4, align 8
  %.not.i = icmp eq ptr %30, null
  br i1 %.not.i, label %31, label %34

31:                                               ; preds = %29
  %32 = tail call ptr @calloc_arena(i64 noundef 72) #11
  %33 = getelementptr inbounds i8, ptr %32, i64 4
  store i32 8, ptr %33, align 4
  br label %36

34:                                               ; preds = %29
  %35 = getelementptr inbounds i8, ptr %30, i64 -8
  %.phi.trans.insert.i = getelementptr inbounds i8, ptr %30, i64 -4
  %.pre.i = load i32, ptr %.phi.trans.insert.i, align 4
  br label %36

36:                                               ; preds = %34, %31
  %37 = phi i32 [ %.pre.i, %34 ], [ 8, %31 ]
  %.0.i = phi ptr [ %35, %34 ], [ %32, %31 ]
  %38 = load i32, ptr %.0.i, align 4
  %39 = icmp eq i32 %38, %37
  br i1 %39, label %40, label %54

40:                                               ; preds = %36
  %41 = getelementptr inbounds i8, ptr %.0.i, i64 4
  %42 = shl i32 %37, 1
  %43 = zext i32 %42 to i64
  %44 = shl nuw nsw i64 %43, 3
  %45 = or disjoint i64 %44, 8
  %46 = tail call ptr @calloc_arena(i64 noundef %45) #11
  %47 = getelementptr inbounds i8, ptr %46, i64 4
  store i32 %42, ptr %47, align 4
  %48 = load i32, ptr %41, align 4
  %49 = zext i32 %48 to i64
  %50 = shl nuw nsw i64 %49, 3
  %51 = add nuw nsw i64 %50, 8
  tail call void @llvm.memcpy.p0.p0.i64(ptr noundef nonnull align 4 dereferenceable(1) %46, ptr noundef nonnull align 4 dereferenceable(1) %.0.i, i64 %51, i1 false)
  %52 = load i32, ptr %47, align 4
  %53 = shl i32 %52, 1
  store i32 %53, ptr %47, align 4
  %.pre18.i = load i32, ptr %46, align 4
  br label %54

54:                                               ; preds = %36, %40
  %55 = phi i32 [ %.pre18.i, %40 ], [ %38, %36 ]
  %.1.i = phi ptr [ %46, %40 ], [ %.0.i, %36 ]
  %56 = add i32 %55, 1
  store i32 %56, ptr %.1.i, align 4
  %57 = getelementptr inbounds i8, ptr %.1.i, i64 8
  store ptr %57, ptr %4, align 8
  %58 = load i32, ptr %.1.i, align 4
  %59 = add i32 %58, -1
  %60 = zext i32 %59 to i64
  %61 = getelementptr inbounds ptr, ptr %57, i64 %60
  store ptr %25, ptr %61, align 8
  br label %63

62:                                               ; preds = %.lr.ph
  tail call void @unit_register_global_decl(ptr noundef %0, ptr noundef nonnull %25) #11
  br label %63

63:                                               ; preds = %62, %54
  %indvars.iv.next = add nuw nsw i64 %indvars.iv, 1
  %exitcond.not = icmp eq i64 %indvars.iv.next, %wide.trip.count
  br i1 %exitcond.not, label %._crit_edge, label %.lr.ph, !llvm.loop !14

._crit_edge:                                      ; preds = %63, %19, %21
  %indvars.iv.next65 = add nuw nsw i64 %indvars.iv64, 1
  %exitcond68.not = icmp eq i64 %indvars.iv.next65, %wide.trip.count67
  br i1 %exitcond68.not, label %.loopexit, label %.lr.ph56, !llvm.loop !15

._crit_edge60:                                    ; preds = %.loopexit, %5, %1
  ret void
}